target datalayout = "e-m:e-p270:32:32-p271:32:32-p272:64:64-i64:64-i128:128-f80:128-n8:16:32:64-S128"
target triple = "x86_64-unknown-linux-gnu"

%union.__CONST_SOCKADDR_ARG = type { ptr }
%struct.sockaddr_un = type { i16, [108 x i8] }
%struct.sockaddr = type { i16, [14 x i8] }

@.str.10 = private unnamed_addr constant [51 x i8] c"unix socket path too long (%zu), must be under %zu\00", align 1
@.str.15 = private unnamed_addr constant [9 x i8] c"bind: %s\00", align 1
@.str.21 = private unnamed_addr constant [11 x i8] c"listen: %s\00", align 1

; Function Attrs: nounwind uwtable
define internal i32 @anetListen(ptr noundef %err, i32 noundef %s, ptr noundef %sa, i32 noundef %len, i32 noundef %backlog, i32 noundef %perm) #0 {
entry:
  %retval = alloca i32, align 4
  %err.addr = alloca ptr, align 8
  %s.addr = alloca i32, align 4
  %sa.addr = alloca ptr, align 8
  %len.addr = alloca i32, align 4
  %backlog.addr = alloca i32, align 4
  %perm.addr = alloca i32, align 4
  %agg.tmp = alloca %union.__CONST_SOCKADDR_ARG, align 8
  store ptr %err, ptr %err.addr, align 8
  store i32 %s, ptr %s.addr, align 4
  store ptr %sa, ptr %sa.addr, align 8
  store i32 %len, ptr %len.addr, align 4
  store i32 %backlog, ptr %backlog.addr, align 4
  store i32 %perm, ptr %perm.addr, align 4
  %0 = load i32, ptr %s.addr, align 4
  %1 = load ptr, ptr %sa.addr, align 8
  store ptr %1, ptr %agg.tmp, align 8
  %2 = load i32, ptr %len.addr, align 4
  %coerce.dive = getelementptr inbounds %union.__CONST_SOCKADDR_ARG, ptr %agg.tmp, i32 0, i32 0
  %3 = load ptr, ptr %coerce.dive, align 8
  %call = call i32 @bind(i32 noundef %0, ptr %3, i32 noundef %2) #7
  %cmp = icmp eq i32 %call, -1
  br i1 %cmp, label %if.then, label %if.end

if.then:                                          ; preds = %entry
  %4 = load ptr, ptr %err.addr, align 8
  %call1 = call ptr @__errno_location() #8
  %5 = load i32, ptr %call1, align 4
  %call2 = call ptr @strerror(i32 noundef %5) #7
  call void (ptr, ptr, ...) @anetSetError(ptr noundef %4, ptr noundef @.str.15, ptr noundef %call2)
  %6 = load i32, ptr %s.addr, align 4
  %call3 = call i32 @close(i32 noundef %6)
  store i32 -1, ptr %retval, align 4
  br label %return

if.end:                                           ; preds = %entry
  %7 = load ptr, ptr %sa.addr, align 8
  %sa_family = getelementptr inbounds %struct.sockaddr, ptr %7, i32 0, i32 0
  %8 = load i16, ptr %sa_family, align 2
  %conv = zext i16 %8 to i32
  %cmp4 = icmp eq i32 %conv, 1
  br i1 %cmp4, label %land.lhs.true, label %if.end8

land.lhs.true:                                    ; preds = %if.end
  %9 = load i32, ptr %perm.addr, align 4
  %tobool = icmp ne i32 %9, 0
  br i1 %tobool, label %if.then6, label %if.end8

if.then6:                                         ; preds = %land.lhs.true
  %10 = load ptr, ptr %sa.addr, align 8
  %sun_path = getelementptr inbounds %struct.sockaddr_un, ptr %10, i32 0, i32 1
  %arraydecay = getelementptr inbounds [108 x i8], ptr %sun_path, i64 0, i64 0
  %11 = load i32, ptr %perm.addr, align 4
  %call7 = call i32 @chmod(ptr noundef %arraydecay, i32 noundef %11) #7
  br label %if.end8

if.end8:                                          ; preds = %if.then6, %land.lhs.true, %if.end
  %12 = load i32, ptr %s.addr, align 4
  %13 = load i32, ptr %backlog.addr, align 4
  %call9 = call i32 @listen(i32 noundef %12, i32 noundef %13) #7
  %cmp10 = icmp eq i32 %call9, -1
  br i1 %cmp10, label %if.then12, label %if.end16

if.then12:                                        ; preds = %if.end8
  %14 = load ptr, ptr %err.addr, align 8
  %call13 = call ptr @__errno_location() #8
  %15 = load i32, ptr %call13, align 4
  %call14 = call ptr @strerror(i32 noundef %15) #7
  call void (ptr, ptr, ...) @anetSetError(ptr noundef %14, ptr noundef @.str.21, ptr noundef %call14)
  %16 = load i32, ptr %s.addr, align 4
  %call15 = call i32 @close(i32 noundef %16)
  store i32 -1, ptr %retval, align 4
  br label %return

if.end16:                                         ; preds = %if.end8
  store i32 0, ptr %retval, align 4
  br label %return

return:                                           ; preds = %if.end16, %if.then12, %if.then
  %17 = load i32, ptr %retval, align 4
  ret i32 %17
}

; Function Attrs: nounwind uwtable
define dso_local i32 @anetUnixServer(ptr noundef %err, ptr noundef %path, i32 noundef %perm, i32 noundef %backlog) #0 {
entry:
  %retval = alloca i32, align 4
  %err.addr = alloca ptr, align 8
  %path.addr = alloca ptr, align 8
  %perm.addr = alloca i32, align 4
  %backlog.addr = alloca i32, align 4
  %s = alloca i32, align 4
  %sa = alloca %struct.sockaddr_un, align 2
  store ptr %err, ptr %err.addr, align 8
  store ptr %path, ptr %path.addr, align 8
  store i32 %perm, ptr %perm.addr, align 4
  store i32 %backlog, ptr %backlog.addr, align 4
  %0 = load ptr, ptr %path.addr, align 8
  %call = call i64 @strlen(ptr noundef %0) #9
  %cmp = icmp ugt i64 %call, 107
  br i1 %cmp, label %if.then, label %if.end

if.then:                                          ; preds = %entry
  %1 = load ptr, ptr %err.addr, align 8
  %2 = load ptr, ptr %path.addr, align 8
  %call1 = call i64 @strlen(ptr noundef %2) #9
  call void (ptr, ptr, ...) @anetSetError(ptr noundef %1, ptr noundef @.str.10, i64 noundef %call1, i64 noundef 108)
  store i32 -1, ptr %retval, align 4
  br label %return

if.end:                                           ; preds = %entry
  %3 = load ptr, ptr %err.addr, align 8
  %call2 = call i32 @anetCreateSocket(ptr noundef %3, i32 noundef 1)
  store i32 %call2, ptr %s, align 4
  %cmp3 = icmp eq i32 %call2, -1
  br i1 %cmp3, label %if.then4, label %if.end5

if.then4:                                         ; preds = %if.end
  store i32 -1, ptr %retval, align 4
  br label %return

if.end5:                                          ; preds = %if.end
  call void @llvm.memset.p0.i64(ptr align 2 %sa, i8 0, i64 110, i1 false)
  %sun_family = getelementptr inbounds %struct.sockaddr_un, ptr %sa, i32 0, i32 0
  store i16 1, ptr %sun_family, align 2
  %sun_path = getelementptr inbounds %struct.sockaddr_un, ptr %sa, i32 0, i32 1
  %arraydecay = getelementptr inbounds [108 x i8], ptr %sun_path, i64 0, i64 0
  %4 = load ptr, ptr %path.addr, align 8
  %call6 = call i64 @redis_strlcpy(ptr noundef %arraydecay, ptr noundef %4, i64 noundef 108)
  %5 = load ptr, ptr %err.addr, align 8
  %6 = load i32, ptr %s, align 4
  %7 = load i32, ptr %backlog.addr, align 4
  %8 = load i32, ptr %perm.addr, align 4
  %call7 = call i32 @anetListen(ptr noundef %5, i32 noundef %6, ptr noundef %sa, i32 noundef 110, i32 noundef %7, i32 noundef %8)
  %cmp8 = icmp eq i32 %call7, -1
  br i1 %cmp8, label %if.then9, label %if.end10

if.then9:                                         ; preds = %if.end5
  store i32 -1, ptr %retval, align 4
  br label %return

if.end10:                                         ; preds = %if.end5
  %9 = load i32, ptr %s, align 4
  store i32 %9, ptr %retval, align 4
  br label %return

return:                                           ; preds = %if.end10, %if.then9, %if.then4, %if.then
  %10 = load i32, ptr %retval, align 4
  ret i32 %10
}