; Function Attrs: nounwind uwtable
define dso_local i32 @anetUnixServer(ptr noundef %err, ptr noundef %path, i32 noundef %perm, i32 noundef %backlog) local_unnamed_addr #0 {
entry:
  %sa = alloca %struct.sockaddr_un, align 2
  %call = tail call i64 @strlen(ptr noundef nonnull dereferenceable(1) %path) #12
  %cmp = icmp ugt i64 %call, 107
  br i1 %cmp, label %if.then, label %if.end

if.then:                                          ; preds = %entry
  tail call void (ptr, ptr, ...) @anetSetError(ptr noundef %err, ptr noundef nonnull @.str.10, i64 noundef %call, i64 noundef 108)
  br label %return

if.end:                                           ; preds = %entry
  %call2 = tail call fastcc i32 @anetCreateSocket(ptr noundef %err)
  %cmp3 = icmp eq i32 %call2, -1
  br i1 %cmp3, label %return, label %if.end5

if.end5:                                          ; preds = %if.end
  %0 = getelementptr inbounds i8, ptr %sa, i64 2
  call void @llvm.memset.p0.i64(ptr noundef nonnull align 2 dereferenceable(110) %0, i8 0, i64 108, i1 false)
  store i16 1, ptr %sa, align 2
  %sun_path = getelementptr inbounds i8, ptr %sa, i64 2
  %call6 = call i64 @redis_strlcpy(ptr noundef nonnull %sun_path, ptr noundef %path, i64 noundef 108) #10
  %call.i = call i32 @bind(i32 noundef %call2, ptr nonnull %sa, i32 noundef 110) #10
  %cmp.i = icmp eq i32 %call.i, -1
  br i1 %cmp.i, label %2, label %if.end.i

if.end.i:                                         ; preds = %if.end5
  %1 = load i16, ptr %sa, align 2
  %cmp4.i = icmp eq i16 %1, 1
  %tobool.i = icmp ne i32 %perm, 0
  %or.cond.i = and i1 %tobool.i, %cmp4.i
  br i1 %or.cond.i, label %if.then6.i, label %if.end8.i

if.then6.i:                                       ; preds = %if.end.i
  %call7.i = call i32 @chmod(ptr noundef nonnull %sun_path, i32 noundef %perm) #10
  br label %if.end8.i

if.end8.i:                                        ; preds = %if.then6.i, %if.end.i
  %call9.i = call i32 @listen(i32 noundef %call2, i32 noundef %backlog) #10
  %cmp10.i = icmp eq i32 %call9.i, -1
  br i1 %cmp10.i, label %2, label %return

2:                                                ; preds = %if.end5, %if.end8.i
  %.str.21.sink.i = phi ptr [ @.str.15, %if.end5 ], [ @.str.21, %if.end8.i ]
  %call13.i = tail call ptr @__errno_location() #11
  %3 = load i32, ptr %call13.i, align 4
  %call14.i = call ptr @strerror(i32 noundef %3) #10
  call void (ptr, ptr, ...) @anetSetError(ptr noundef %err, ptr noundef nonnull %.str.21.sink.i, ptr noundef %call14.i)
  %call15.i = call i32 @close(i32 noundef %call2) #10
  br label %return

return:                                           ; preds = %2, %if.end8.i, %if.end, %if.then
  %retval.0 = phi i32 [ -1, %if.then ], [ -1, %if.end ], [ -1, %2 ], [ %call2, %if.end8.i ]
  ret i32 %retval.0
}